target datalayout = "e-m:e-p270:32:32-p271:32:32-p272:64:64-i64:64-i128:128-f80:128-n8:16:32:64-S128"
target triple = "x86_64-pc-linux-gnu"

%struct.DES_ks = type { [16 x %union.anon] }
%union.anon = type { [2 x i32] }

@.str.24 = private unnamed_addr constant [26 x i8] c"../openssl/test/destest.c\00", align 1
@cbc_key = internal global [8 x i8] c"\01#Eg\89\AB\CD\EF", align 1
@cbc_iv = internal global [8 x i8] c"\FE\DC\BA\98vT2\10", align 1
@cbc_data = internal global <{ [30 x i8], [10 x i8] }> <{ [30 x i8] c"7654321 Now is the time for \001", [10 x i8] zeroinitializer }>, align 16
@.str.55 = private unnamed_addr constant [3 x i8] c"cs\00", align 1
@.str.56 = private unnamed_addr constant [14 x i8] c"cbc_cksum_ret\00", align 1
@cbc_cksum_ret = internal global i32 -134323532, align 4
@.str.57 = private unnamed_addr constant [5 x i8] c"cret\00", align 1
@.str.58 = private unnamed_addr constant [15 x i8] c"cbc_cksum_data\00", align 1
@cbc_cksum_data = internal global [8 x i8] c"\1D&\93\97\F7\FEb\B4", align 1

; Function Attrs: nounwind uwtable
define internal i32 @test_des_cbc_cksum() #0 {
  %1 = alloca i32, align 4
  %2 = alloca i32, align 4
  %3 = alloca %struct.DES_ks, align 4
  %4 = alloca [8 x i8], align 1
  %5 = alloca i32, align 4
  call void @llvm.lifetime.start.p0(i64 4, ptr %2) #6
  call void @llvm.lifetime.start.p0(i64 128, ptr %3) #6
  call void @llvm.lifetime.start.p0(i64 8, ptr %4) #6
  %6 = call i32 @DES_set_key_checked(ptr noundef @cbc_key, ptr noundef %3)
  %7 = call i64 @strlen(ptr noundef @cbc_data) #7
  %8 = call i32 @DES_cbc_cksum(ptr noundef @cbc_data, ptr noundef %4, i64 noundef %7, ptr noundef %3, ptr noundef @cbc_iv)
  store i32 %8, ptr %2, align 4, !tbaa !4
  %9 = load i32, ptr %2, align 4, !tbaa !4
  %10 = load i32, ptr @cbc_cksum_ret, align 4, !tbaa !4
  %11 = call i32 @test_uint_eq(ptr noundef @.str.24, i32 noundef 687, ptr noundef @.str.55, ptr noundef @.str.56, i32 noundef %9, i32 noundef %10)
  %12 = icmp ne i32 %11, 0
  br i1 %12, label %14, label %13

13:                                               ; preds = %0
  store i32 0, ptr %1, align 4
  store i32 1, ptr %5, align 4
  br label %17

14:                                               ; preds = %0
  %15 = getelementptr inbounds [8 x i8], ptr %4, i64 0, i64 0
  %16 = call i32 @test_mem_eq(ptr noundef @.str.24, i32 noundef 689, ptr noundef @.str.57, ptr noundef @.str.58, ptr noundef %15, i64 noundef 8, ptr noundef @cbc_cksum_data, i64 noundef 8)
  store i32 %16, ptr %1, align 4
  store i32 1, ptr %5, align 4
  br label %17

17:                                               ; preds = %14, %13
  call void @llvm.lifetime.end.p0(i64 8, ptr %4) #6
  call void @llvm.lifetime.end.p0(i64 128, ptr %3) #6
  call void @llvm.lifetime.end.p0(i64 4, ptr %2) #6
  %18 = load i32, ptr %1, align 4
  ret i32 %18
}