; Function Attrs: nounwind uwtable
define internal i32 @test_des_cbc_cksum() #0 {
  %1 = alloca %struct.DES_ks, align 4
  %2 = alloca [8 x i8], align 1
  call void @llvm.lifetime.start.p0(i64 128, ptr nonnull %1) #6
  call void @llvm.lifetime.start.p0(i64 8, ptr nonnull %2) #6
  %3 = call i32 @DES_set_key_checked(ptr noundef nonnull @cbc_key, ptr noundef nonnull %1) #6
  %4 = call i64 @strlen(ptr noundef nonnull dereferenceable(1) @cbc_data) #7
  %5 = call i32 @DES_cbc_cksum(ptr noundef nonnull @cbc_data, ptr noundef nonnull %2, i64 noundef %4, ptr noundef nonnull %1, ptr noundef nonnull @cbc_iv) #6
  %6 = call i32 @test_uint_eq(ptr noundef nonnull @.str.24, i32 noundef 687, ptr noundef nonnull @.str.55, ptr noundef nonnull @.str.56, i32 noundef %5, i32 noundef -134323532) #6
  %.not = icmp eq i32 %6, 0
  br i1 %.not, label %9, label %7

7:                                                ; preds = %0
  %8 = call i32 @test_mem_eq(ptr noundef nonnull @.str.24, i32 noundef 689, ptr noundef nonnull @.str.57, ptr noundef nonnull @.str.58, ptr noundef nonnull %2, i64 noundef 8, ptr noundef nonnull @cbc_cksum_data, i64 noundef 8) #6
  br label %9

9:                                                ; preds = %0, %7
  %.0 = phi i32 [ %8, %7 ], [ 0, %0 ]
  call void @llvm.lifetime.end.p0(i64 8, ptr nonnull %2) #6
  call void @llvm.lifetime.end.p0(i64 128, ptr nonnull %1) #6
  ret i32 %.0
}